target datalayout = "e-m:e-p270:32:32-p271:32:32-p272:64:64-i64:64-i128:128-f80:128-n8:16:32:64-S128"
target triple = "x86_64-pc-linux-gnu"

%"class.smt::eq_justification" = type { ptr }
%"class.smt::conflict_resolution" = type <{ ptr, ptr, ptr, ptr, ptr, ptr, i32, [4 x i8], %class.svector, %class.ref_vector, i32, i32, %class.ptr_vector.1, i32, [4 x i8], %class.svector.3, %class.obj_pair_set, ptr, ptr, %class.svector.5, %class.obj_map, %class.obj_pair_map, %class.map, %class.ref_vector.15, %class.ref_vector.20, %class.obj_ref, %class.svector, %class.svector, %class.svector.25, %class.svector.25, %class.approx_set_tpl, [4 x i8] }>
%class.ref_vector = type { %class.ref_vector_core }
%class.ref_vector_core = type { %class.ref_manager_wrapper, %class.ptr_vector }
%class.ref_manager_wrapper = type { ptr }
%class.ptr_vector = type { %class.vector.0 }
%class.vector.0 = type { ptr }
%class.ptr_vector.1 = type { %class.vector.2 }
%class.vector.2 = type { ptr }
%class.svector.3 = type { %class.vector.4 }
%class.vector.4 = type { ptr }
%class.obj_pair_set = type { %class.chashtable }
%class.chashtable = type { ptr, i32, i32, i32, i32, i32, i32, i32, ptr, ptr, ptr }
%class.svector.5 = type { %class.vector.6 }
%class.vector.6 = type { ptr }
%class.obj_map = type { %class.core_hashtable }
%class.core_hashtable = type <{ ptr, i32, i32, i32, [4 x i8] }>
%class.obj_pair_map = type { %class.core_hashtable.7 }
%class.core_hashtable.7 = type <{ ptr, i32, i32, i32, [4 x i8] }>
%class.map = type { %class.table2map }
%class.table2map = type { %class.core_hashtable.11 }
%class.core_hashtable.11 = type <{ ptr, i32, i32, i32, [4 x i8] }>
%class.ref_vector.15 = type { %class.ref_vector_core.16 }
%class.ref_vector_core.16 = type { %class.ref_manager_wrapper.17, %class.ptr_vector.18 }
%class.ref_manager_wrapper.17 = type { ptr }
%class.ptr_vector.18 = type { %class.vector.19 }
%class.vector.19 = type { ptr }
%class.ref_vector.20 = type { %class.ref_vector_core.21 }
%class.ref_vector_core.21 = type { %class.ref_manager_wrapper.22, %class.ptr_vector.23 }
%class.ref_manager_wrapper.22 = type { ptr }
%class.ptr_vector.23 = type { %class.vector.24 }
%class.vector.24 = type { ptr }
%class.obj_ref = type { ptr, ptr }
%class.svector = type { %class.vector }
%class.vector = type { ptr }
%class.svector.25 = type { %class.vector.26 }
%class.vector.26 = type { ptr }
%class.approx_set_tpl = type { i32 }
%"class.smt::enode" = type { ptr, ptr, ptr, ptr, i32, i32, i32, i16, i32, i8, i8, %class.ptr_vector.213, %class.id_var_list, %"struct.smt::trans_justification", %class.approx_set, %class.approx_set, [0 x ptr] }
%class.ptr_vector.213 = type { %class.vector.214 }
%class.vector.214 = type { ptr }
%class.id_var_list = type { i32, ptr }
%"struct.smt::trans_justification" = type { ptr, %"class.smt::eq_justification" }
%class.approx_set = type { %class.approx_set_tpl.310 }
%class.approx_set_tpl.310 = type { i64 }
%"class.smt::dyn_ack_manager" = type { ptr, ptr, ptr, %class.obj_pair_map.245, %class.svector.250, %class.svector.250, i32, i32, i32, [4 x i8], %class.obj_pair_hashtable.252, %class.obj_map.258, %"struct.smt::dyn_ack_manager::_triple" }
%class.obj_pair_map.245 = type { %class.core_hashtable.246 }
%class.core_hashtable.246 = type <{ ptr, i32, i32, i32, [4 x i8] }>
%class.svector.250 = type { %class.vector.251 }
%class.vector.251 = type { ptr }
%class.obj_pair_hashtable.252 = type { %class.core_hashtable.base.256, [4 x i8] }
%class.core_hashtable.base.256 = type <{ ptr, i32, i32, i32 }>
%class.obj_map.258 = type { %class.core_hashtable.259 }
%class.core_hashtable.259 = type <{ ptr, i32, i32, i32, [4 x i8] }>
%"struct.smt::dyn_ack_manager::_triple" = type { %class.obj_triple_map, %class.svector.267, %class.svector.267, i32, i32, i32, [4 x i8], %class.obj_triple_hashtable, %class.obj_map.272 }
%class.obj_triple_map = type { %class.core_hashtable.263 }
%class.core_hashtable.263 = type <{ ptr, i32, i32, i32, [4 x i8] }>
%class.svector.267 = type { %class.vector.268 }
%class.vector.268 = type { ptr }
%class.obj_triple_hashtable = type { %class.core_hashtable.base.271, [4 x i8] }
%class.core_hashtable.base.271 = type <{ ptr, i32, i32, i32 }>
%class.obj_map.272 = type { %class.core_hashtable.273 }
%class.core_hashtable.273 = type <{ ptr, i32, i32, i32, [4 x i8] }>
%struct.dyn_ack_params = type { i32, i8, double, i32, i32, double }

; Function Attrs: mustprogress nounwind uwtable
define linkonce_odr hidden void @_ZN3smt5enode11unset_mark2Ev(ptr noundef nonnull align 8 dereferenceable(112) %0) #4 comdat align 2 {
  %2 = alloca ptr, align 8
  store ptr %0, ptr %2, align 8, !tbaa !144
  %3 = load ptr, ptr %2, align 8
  %4 = getelementptr inbounds nuw %"class.smt::enode", ptr %3, i32 0, i32 7
  %5 = load i16, ptr %4, align 4
  %6 = and i16 %5, -3
  %7 = or i16 %6, 0
  store i16 %7, ptr %4, align 4
  ret void
}

; Function Attrs: mustprogress nounwind uwtable
define linkonce_odr hidden void @_ZN3smt5enode9set_mark2Ev(ptr noundef nonnull align 8 dereferenceable(112) %0) #4 comdat align 2 {
  %2 = alloca ptr, align 8
  store ptr %0, ptr %2, align 8, !tbaa !144
  %3 = load ptr, ptr %2, align 8
  %4 = getelementptr inbounds nuw %"class.smt::enode", ptr %3, i32 0, i32 7
  %5 = load i16, ptr %4, align 4
  %6 = and i16 %5, -3
  %7 = or i16 %6, 2
  store i16 %7, ptr %4, align 4
  ret void
}

; Function Attrs: mustprogress uwtable
define linkonce_odr hidden void @_ZN3smt19conflict_resolution20mark_enodes_in_transILb0EEEvPNS_5enodeE(ptr noundef nonnull align 8 dereferenceable(356) %0, ptr noundef %1) #6 comdat align 2 {
  %3 = alloca ptr, align 8
  %4 = alloca ptr, align 8
  store ptr %0, ptr %3, align 8, !tbaa !28
  store ptr %1, ptr %4, align 8, !tbaa !144
  br label %5

5:                                                ; preds = %8, %2
  %6 = load ptr, ptr %4, align 8, !tbaa !144
  %7 = icmp ne ptr %6, null
  br i1 %7, label %8, label %14

8:                                                ; preds = %5
  %9 = load ptr, ptr %4, align 8, !tbaa !144
  call void @_ZN3smt5enode11unset_mark2Ev(ptr noundef nonnull align 8 dereferenceable(112) %9)
  %10 = load ptr, ptr %4, align 8, !tbaa !144
  %11 = getelementptr inbounds nuw %"class.smt::enode", ptr %10, i32 0, i32 13
  %12 = getelementptr inbounds nuw %"struct.smt::trans_justification", ptr %11, i32 0, i32 0
  %13 = load ptr, ptr %12, align 8, !tbaa !146
  store ptr %13, ptr %4, align 8, !tbaa !144
  br label %5, !llvm.loop !160

14:                                               ; preds = %5
  ret void
}

; Function Attrs: mustprogress nounwind uwtable
define linkonce_odr hidden noundef zeroext i1 @_ZNK3smt5enode10is_marked2Ev(ptr noundef nonnull align 8 dereferenceable(112) %0) #4 comdat align 2 {
  %2 = alloca ptr, align 8
  store ptr %0, ptr %2, align 8, !tbaa !144
  %3 = load ptr, ptr %2, align 8
  %4 = getelementptr inbounds nuw %"class.smt::enode", ptr %3, i32 0, i32 7
  %5 = load i16, ptr %4, align 4
  %6 = lshr i16 %5, 1
  %7 = and i16 %6, 1
  %8 = zext i16 %7 to i32
  %9 = icmp ne i32 %8, 0
  ret i1 %9
}

; Function Attrs: mustprogress uwtable
define linkonce_odr hidden void @_ZN3smt19conflict_resolution20mark_enodes_in_transILb1EEEvPNS_5enodeE(ptr noundef nonnull align 8 dereferenceable(356) %0, ptr noundef %1) #6 comdat align 2 {
  %3 = alloca ptr, align 8
  %4 = alloca ptr, align 8
  store ptr %0, ptr %3, align 8, !tbaa !28
  store ptr %1, ptr %4, align 8, !tbaa !144
  br label %5

5:                                                ; preds = %8, %2
  %6 = load ptr, ptr %4, align 8, !tbaa !144
  %7 = icmp ne ptr %6, null
  br i1 %7, label %8, label %14

8:                                                ; preds = %5
  %9 = load ptr, ptr %4, align 8, !tbaa !144
  call void @_ZN3smt5enode9set_mark2Ev(ptr noundef nonnull align 8 dereferenceable(112) %9)
  %10 = load ptr, ptr %4, align 8, !tbaa !144
  %11 = getelementptr inbounds nuw %"class.smt::enode", ptr %10, i32 0, i32 13
  %12 = getelementptr inbounds nuw %"struct.smt::trans_justification", ptr %11, i32 0, i32 0
  %13 = load ptr, ptr %12, align 8, !tbaa !146
  store ptr %13, ptr %4, align 8, !tbaa !144
  br label %5, !llvm.loop !159

14:                                               ; preds = %5
  ret void
}

; Function Attrs: mustprogress uwtable
define linkonce_odr hidden void @_ZN3smt15dyn_ack_manager10used_eq_ehEP3appS2_S2_(ptr noundef nonnull align 8 dereferenceable(232) %0, ptr noundef %1, ptr noundef %2, ptr noundef %3) #6 comdat align 2 {
  %5 = alloca ptr, align 8
  %6 = alloca ptr, align 8
  %7 = alloca ptr, align 8
  %8 = alloca ptr, align 8
  store ptr %0, ptr %5, align 8, !tbaa !34
  store ptr %1, ptr %6, align 8, !tbaa !165
  store ptr %2, ptr %7, align 8, !tbaa !165
  store ptr %3, ptr %8, align 8, !tbaa !165
  %9 = load ptr, ptr %5, align 8
  %10 = getelementptr inbounds nuw %"class.smt::dyn_ack_manager", ptr %9, i32 0, i32 2
  %11 = load ptr, ptr %10, align 8, !tbaa !166
  %12 = getelementptr inbounds nuw %struct.dyn_ack_params, ptr %11, i32 0, i32 1
  %13 = load i8, ptr %12, align 4, !tbaa !202, !range !12, !noundef !13
  %14 = trunc i8 %13 to i1
  br i1 %14, label %15, label %19

15:                                               ; preds = %4
  %16 = load ptr, ptr %6, align 8, !tbaa !165
  %17 = load ptr, ptr %7, align 8, !tbaa !165
  %18 = load ptr, ptr %8, align 8, !tbaa !165
  call void @_ZN3smt15dyn_ack_manager5eq_ehEP3appS2_S2_(ptr noundef nonnull align 8 dereferenceable(232) %9, ptr noundef %16, ptr noundef %17, ptr noundef %18)
  br label %19

19:                                               ; preds = %15, %4
  ret void
}

; Function Attrs: mustprogress nounwind uwtable
define linkonce_odr hidden noundef ptr @_ZNK3smt5enode8get_exprEv(ptr noundef nonnull align 8 dereferenceable(112) %0) #4 comdat align 2 {
  %2 = alloca ptr, align 8
  store ptr %0, ptr %2, align 8, !tbaa !144
  %3 = load ptr, ptr %2, align 8
  %4 = getelementptr inbounds nuw %"class.smt::enode", ptr %3, i32 0, i32 0
  %5 = load ptr, ptr %4, align 8, !tbaa !198
  ret ptr %5
}

; Function Attrs: mustprogress uwtable
define hidden void @_ZN3smt19conflict_resolution18eq_branch2literalsEPNS_5enodeES2_(ptr noundef nonnull align 8 dereferenceable(356) %0, ptr noundef %1, ptr noundef %2) #6 align 2 {
  %4 = alloca ptr, align 8
  %5 = alloca ptr, align 8
  %6 = alloca ptr, align 8
  %7 = alloca %"class.smt::eq_justification", align 8
  store ptr %0, ptr %4, align 8, !tbaa !28
  store ptr %1, ptr %5, align 8, !tbaa !144
  store ptr %2, ptr %6, align 8, !tbaa !144
  %8 = load ptr, ptr %4, align 8
  br label %9

9:                                                ; preds = %13, %3
  %10 = load ptr, ptr %5, align 8, !tbaa !144
  %11 = load ptr, ptr %6, align 8, !tbaa !144
  %12 = icmp ne ptr %10, %11
  br i1 %12, label %13, label %28

13:                                               ; preds = %9
  %14 = load ptr, ptr %5, align 8, !tbaa !144
  %15 = load ptr, ptr %5, align 8, !tbaa !144
  %16 = getelementptr inbounds nuw %"class.smt::enode", ptr %15, i32 0, i32 13
  %17 = getelementptr inbounds nuw %"struct.smt::trans_justification", ptr %16, i32 0, i32 0
  %18 = load ptr, ptr %17, align 8, !tbaa !146
  %19 = load ptr, ptr %5, align 8, !tbaa !144
  %20 = getelementptr inbounds nuw %"class.smt::enode", ptr %19, i32 0, i32 13
  %21 = getelementptr inbounds nuw %"struct.smt::trans_justification", ptr %20, i32 0, i32 1
  call void @llvm.memcpy.p0.p0.i64(ptr align 8 %7, ptr align 8 %21, i64 8, i1 false), !tbaa.struct !199
  %22 = getelementptr inbounds nuw %"class.smt::eq_justification", ptr %7, i32 0, i32 0
  %23 = load ptr, ptr %22, align 8
  call void @_ZN3smt19conflict_resolution25eq_justification2literalsEPNS_5enodeES2_NS_16eq_justificationE(ptr noundef nonnull align 8 dereferenceable(356) %8, ptr noundef %14, ptr noundef %18, ptr %23)
  %24 = load ptr, ptr %5, align 8, !tbaa !144
  %25 = getelementptr inbounds nuw %"class.smt::enode", ptr %24, i32 0, i32 13
  %26 = getelementptr inbounds nuw %"struct.smt::trans_justification", ptr %25, i32 0, i32 0
  %27 = load ptr, ptr %26, align 8, !tbaa !146
  store ptr %27, ptr %5, align 8, !tbaa !144
  br label %9, !llvm.loop !201

28:                                               ; preds = %9
  ret void
}

; Function Attrs: mustprogress uwtable
define hidden noundef ptr @_ZN3smt19conflict_resolution20find_common_ancestorEPNS_5enodeES2_(ptr noundef nonnull align 8 dereferenceable(356) %0, ptr noundef %1, ptr noundef %2) #6 align 2 {
  %4 = alloca ptr, align 8
  %5 = alloca ptr, align 8
  %6 = alloca ptr, align 8
  store ptr %0, ptr %4, align 8, !tbaa !28
  store ptr %1, ptr %5, align 8, !tbaa !144
  store ptr %2, ptr %6, align 8, !tbaa !144
  %7 = load ptr, ptr %4, align 8
  %8 = load ptr, ptr %5, align 8, !tbaa !144
  call void @_ZN3smt19conflict_resolution20mark_enodes_in_transILb1EEEvPNS_5enodeE(ptr noundef nonnull align 8 dereferenceable(356) %7, ptr noundef %8)
  br label %9

9:                                                ; preds = %3, %15
  %10 = load ptr, ptr %6, align 8, !tbaa !144
  %11 = call noundef zeroext i1 @_ZNK3smt5enode10is_marked2Ev(ptr noundef nonnull align 8 dereferenceable(112) %10)
  br i1 %11, label %12, label %15

12:                                               ; preds = %9
  %13 = load ptr, ptr %5, align 8, !tbaa !144
  call void @_ZN3smt19conflict_resolution20mark_enodes_in_transILb0EEEvPNS_5enodeE(ptr noundef nonnull align 8 dereferenceable(356) %7, ptr noundef %13)
  %14 = load ptr, ptr %6, align 8, !tbaa !144
  ret ptr %14

15:                                               ; preds = %9
  %16 = load ptr, ptr %6, align 8, !tbaa !144
  %17 = getelementptr inbounds nuw %"class.smt::enode", ptr %16, i32 0, i32 13
  %18 = getelementptr inbounds nuw %"struct.smt::trans_justification", ptr %17, i32 0, i32 0
  %19 = load ptr, ptr %18, align 8, !tbaa !146
  store ptr %19, ptr %6, align 8, !tbaa !144
  br label %9, !llvm.loop !157
}

; Function Attrs: mustprogress uwtable
define hidden void @_ZN3smt19conflict_resolution11eq2literalsEPNS_5enodeES2_(ptr noundef nonnull align 8 dereferenceable(356) %0, ptr noundef %1, ptr noundef %2) #6 align 2 {
  %4 = alloca ptr, align 8
  %5 = alloca ptr, align 8
  %6 = alloca ptr, align 8
  %7 = alloca ptr, align 8
  store ptr %0, ptr %4, align 8, !tbaa !28
  store ptr %1, ptr %5, align 8, !tbaa !144
  store ptr %2, ptr %6, align 8, !tbaa !144
  %8 = load ptr, ptr %4, align 8
  call void @llvm.lifetime.start.p0(i64 8, ptr %7) #3
  %9 = load ptr, ptr %5, align 8, !tbaa !144
  %10 = load ptr, ptr %6, align 8, !tbaa !144
  %11 = call noundef ptr @_ZN3smt19conflict_resolution20find_common_ancestorEPNS_5enodeES2_(ptr noundef nonnull align 8 dereferenceable(356) %8, ptr noundef %9, ptr noundef %10)
  store ptr %11, ptr %7, align 8, !tbaa !144
  %12 = load ptr, ptr %5, align 8, !tbaa !144
  %13 = load ptr, ptr %7, align 8, !tbaa !144
  call void @_ZN3smt19conflict_resolution18eq_branch2literalsEPNS_5enodeES2_(ptr noundef nonnull align 8 dereferenceable(356) %8, ptr noundef %12, ptr noundef %13)
  %14 = load ptr, ptr %6, align 8, !tbaa !144
  %15 = load ptr, ptr %7, align 8, !tbaa !144
  call void @_ZN3smt19conflict_resolution18eq_branch2literalsEPNS_5enodeES2_(ptr noundef nonnull align 8 dereferenceable(356) %8, ptr noundef %14, ptr noundef %15)
  %16 = getelementptr inbounds nuw %"class.smt::conflict_resolution", ptr %8, i32 0, i32 4
  %17 = load ptr, ptr %16, align 8, !tbaa !161
  %18 = load ptr, ptr %5, align 8, !tbaa !144
  %19 = call noundef ptr @_ZNK3smt5enode8get_exprEv(ptr noundef nonnull align 8 dereferenceable(112) %18)
  %20 = load ptr, ptr %6, align 8, !tbaa !144
  %21 = call noundef ptr @_ZNK3smt5enode8get_exprEv(ptr noundef nonnull align 8 dereferenceable(112) %20)
  %22 = load ptr, ptr %7, align 8, !tbaa !144
  %23 = call noundef ptr @_ZNK3smt5enode8get_exprEv(ptr noundef nonnull align 8 dereferenceable(112) %22)
  call void @_ZN3smt15dyn_ack_manager10used_eq_ehEP3appS2_S2_(ptr noundef nonnull align 8 dereferenceable(232) %17, ptr noundef %19, ptr noundef %21, ptr noundef %23)
  call void @llvm.lifetime.end.p0(i64 8, ptr %7) #3
  ret void
}