; Function Attrs: mustprogress uwtable
define hidden void @_ZN3smt19conflict_resolution11eq2literalsEPNS_5enodeES2_(ptr noundef nonnull align 8 dereferenceable(356) %0, ptr noundef captures(address) %1, ptr noundef readonly captures(address) %2) local_unnamed_addr #4 align 2 {
  %.not3.i.i = icmp eq ptr %1, null
  br i1 %.not3.i.i, label %_ZN3smt19conflict_resolution20mark_enodes_in_transILb1EEEvPNS_5enodeE.exit.i, label %.lr.ph.i.i

.lr.ph.i.i:                                       ; preds = %3, %.lr.ph.i.i
  %.04.i.i = phi ptr [ %8, %.lr.ph.i.i ], [ %1, %3 ]
  %4 = getelementptr inbounds nuw i8, ptr %.04.i.i, i64 44
  %5 = load i16, ptr %4, align 4
  %6 = or i16 %5, 2
  store i16 %6, ptr %4, align 4
  %7 = getelementptr inbounds nuw i8, ptr %.04.i.i, i64 80
  %8 = load ptr, ptr %7, align 8, !tbaa !124
  %.not.i.i = icmp eq ptr %8, null
  br i1 %.not.i.i, label %_ZN3smt19conflict_resolution20mark_enodes_in_transILb1EEEvPNS_5enodeE.exit.i, label %.lr.ph.i.i, !llvm.loop !137

_ZN3smt19conflict_resolution20mark_enodes_in_transILb1EEEvPNS_5enodeE.exit.i: ; preds = %.lr.ph.i.i, %3
  %9 = getelementptr inbounds nuw i8, ptr %2, i64 44
  %10 = load i16, ptr %9, align 4
  %11 = and i16 %10, 2
  %.not10.i = icmp eq i16 %11, 0
  br i1 %.not10.i, label %.lr.ph.i, label %._crit_edge.i

._crit_edge.i:                                    ; preds = %.lr.ph.i, %_ZN3smt19conflict_resolution20mark_enodes_in_transILb1EEEvPNS_5enodeE.exit.i
  %.0.lcssa.i = phi ptr [ %2, %_ZN3smt19conflict_resolution20mark_enodes_in_transILb1EEEvPNS_5enodeE.exit.i ], [ %18, %.lr.ph.i ]
  br i1 %.not3.i.i, label %_ZN3smt19conflict_resolution20find_common_ancestorEPNS_5enodeES2_.exit, label %.lr.ph.i7.i

.lr.ph.i7.i:                                      ; preds = %._crit_edge.i, %.lr.ph.i7.i
  %.04.i8.i = phi ptr [ %16, %.lr.ph.i7.i ], [ %1, %._crit_edge.i ]
  %12 = getelementptr inbounds nuw i8, ptr %.04.i8.i, i64 44
  %13 = load i16, ptr %12, align 4
  %14 = and i16 %13, -3
  store i16 %14, ptr %12, align 4
  %15 = getelementptr inbounds nuw i8, ptr %.04.i8.i, i64 80
  %16 = load ptr, ptr %15, align 8, !tbaa !124
  %.not.i9.i = icmp eq ptr %16, null
  br i1 %.not.i9.i, label %_ZN3smt19conflict_resolution20find_common_ancestorEPNS_5enodeES2_.exit, label %.lr.ph.i7.i, !llvm.loop !138

.lr.ph.i:                                         ; preds = %_ZN3smt19conflict_resolution20mark_enodes_in_transILb1EEEvPNS_5enodeE.exit.i, %.lr.ph.i
  %.011.i = phi ptr [ %18, %.lr.ph.i ], [ %2, %_ZN3smt19conflict_resolution20mark_enodes_in_transILb1EEEvPNS_5enodeE.exit.i ]
  %17 = getelementptr inbounds nuw i8, ptr %.011.i, i64 80
  %18 = load ptr, ptr %17, align 8, !tbaa !124
  %19 = getelementptr inbounds nuw i8, ptr %18, i64 44
  %20 = load i16, ptr %19, align 4
  %21 = and i16 %20, 2
  %.not.i = icmp eq i16 %21, 0
  br i1 %.not.i, label %.lr.ph.i, label %._crit_edge.i, !llvm.loop !139

_ZN3smt19conflict_resolution20find_common_ancestorEPNS_5enodeES2_.exit: ; preds = %.lr.ph.i7.i, %._crit_edge.i
  %.not7.i = icmp eq ptr %1, %.0.lcssa.i
  br i1 %.not7.i, label %_ZN3smt19conflict_resolution18eq_branch2literalsEPNS_5enodeES2_.exit, label %.lr.ph.i10

.lr.ph.i10:                                       ; preds = %_ZN3smt19conflict_resolution20find_common_ancestorEPNS_5enodeES2_.exit, %.lr.ph.i10
  %.08.i = phi ptr [ %25, %.lr.ph.i10 ], [ %1, %_ZN3smt19conflict_resolution20find_common_ancestorEPNS_5enodeES2_.exit ]
  %22 = getelementptr inbounds nuw i8, ptr %.08.i, i64 80
  %23 = load ptr, ptr %22, align 8, !tbaa !124
  %24 = getelementptr inbounds nuw i8, ptr %.08.i, i64 88
  %.sroa.0.0.copyload.i = load ptr, ptr %24, align 8, !tbaa !187
  tail call void @_ZN3smt19conflict_resolution25eq_justification2literalsEPNS_5enodeES2_NS_16eq_justificationE(ptr noundef nonnull align 8 dereferenceable(356) %0, ptr noundef %.08.i, ptr noundef %23, ptr %.sroa.0.0.copyload.i)
  %25 = load ptr, ptr %22, align 8, !tbaa !124
  %.not.i11 = icmp eq ptr %25, %.0.lcssa.i
  br i1 %.not.i11, label %_ZN3smt19conflict_resolution18eq_branch2literalsEPNS_5enodeES2_.exit, label %.lr.ph.i10, !llvm.loop !188

_ZN3smt19conflict_resolution18eq_branch2literalsEPNS_5enodeES2_.exit: ; preds = %.lr.ph.i10, %_ZN3smt19conflict_resolution20find_common_ancestorEPNS_5enodeES2_.exit
  %.not7.i13 = icmp eq ptr %2, %.0.lcssa.i
  br i1 %.not7.i13, label %_ZN3smt19conflict_resolution18eq_branch2literalsEPNS_5enodeES2_.exit19, label %.lr.ph.i14

.lr.ph.i14:                                       ; preds = %_ZN3smt19conflict_resolution18eq_branch2literalsEPNS_5enodeES2_.exit, %.lr.ph.i14
  %.08.i15 = phi ptr [ %29, %.lr.ph.i14 ], [ %2, %_ZN3smt19conflict_resolution18eq_branch2literalsEPNS_5enodeES2_.exit ]
  %26 = getelementptr inbounds nuw i8, ptr %.08.i15, i64 80
  %27 = load ptr, ptr %26, align 8, !tbaa !124
  %28 = getelementptr inbounds nuw i8, ptr %.08.i15, i64 88
  %.sroa.0.0.copyload.i16 = load ptr, ptr %28, align 8, !tbaa !187
  tail call void @_ZN3smt19conflict_resolution25eq_justification2literalsEPNS_5enodeES2_NS_16eq_justificationE(ptr noundef nonnull align 8 dereferenceable(356) %0, ptr noundef %.08.i15, ptr noundef %27, ptr %.sroa.0.0.copyload.i16)
  %29 = load ptr, ptr %26, align 8, !tbaa !124
  %.not.i17 = icmp eq ptr %29, %.0.lcssa.i
  br i1 %.not.i17, label %_ZN3smt19conflict_resolution18eq_branch2literalsEPNS_5enodeES2_.exit19, label %.lr.ph.i14, !llvm.loop !188

_ZN3smt19conflict_resolution18eq_branch2literalsEPNS_5enodeES2_.exit19: ; preds = %.lr.ph.i14, %_ZN3smt19conflict_resolution18eq_branch2literalsEPNS_5enodeES2_.exit
  %30 = getelementptr inbounds nuw i8, ptr %0, i64 32
  %31 = load ptr, ptr %30, align 8, !tbaa !143
  %32 = getelementptr inbounds nuw i8, ptr %31, i64 16
  %33 = load ptr, ptr %32, align 8, !tbaa !144
  %34 = getelementptr inbounds nuw i8, ptr %33, i64 4
  %35 = load i8, ptr %34, align 4, !tbaa !189, !range !190, !noundef !191
  %36 = trunc nuw i8 %35 to i1
  br i1 %36, label %37, label %_ZN3smt15dyn_ack_manager10used_eq_ehEP3appS2_S2_.exit

37:                                               ; preds = %_ZN3smt19conflict_resolution18eq_branch2literalsEPNS_5enodeES2_.exit19
  %38 = load ptr, ptr %.0.lcssa.i, align 8, !tbaa !176
  %39 = load ptr, ptr %2, align 8, !tbaa !176
  %40 = load ptr, ptr %1, align 8, !tbaa !176
  tail call void @_ZN3smt15dyn_ack_manager5eq_ehEP3appS2_S2_(ptr noundef nonnull align 8 dereferenceable(232) %31, ptr noundef %40, ptr noundef %39, ptr noundef %38)
  br label %_ZN3smt15dyn_ack_manager10used_eq_ehEP3appS2_S2_.exit

_ZN3smt15dyn_ack_manager10used_eq_ehEP3appS2_S2_.exit: ; preds = %_ZN3smt19conflict_resolution18eq_branch2literalsEPNS_5enodeES2_.exit19, %37
  ret void
}